; Function Attrs: mustprogress nounwind uwtable
define dso_local void @_ZN4llvm17PredicateExpander27expandCheckImmOperandSimpleERNS_11raw_ostreamEiNS_9StringRefE(ptr nocapture noundef nonnull readonly align 8 dereferenceable(24) %0, ptr noundef nonnull align 8 dereferenceable(48) %1, i32 noundef %2, ptr %3, i64 %4) local_unnamed_addr #0 align 2 {
  %6 = getelementptr inbounds nuw i8, ptr %0, i64 1
  %7 = load i8, ptr %6, align 1
  %8 = trunc i8 %7 to i1
  br i1 %8, label %9, label %_ZN4llvm11raw_ostreamlsEPKc.exit

9:                                                ; preds = %5
  %10 = getelementptr inbounds nuw i8, ptr %1, i64 24
  %11 = load ptr, ptr %10, align 8
  %12 = getelementptr inbounds nuw i8, ptr %1, i64 32
  %13 = load ptr, ptr %12, align 8
  %14 = icmp eq ptr %11, %13
  br i1 %14, label %15, label %17

15:                                               ; preds = %9
  %16 = tail call noundef nonnull align 8 dereferenceable(48) ptr @_ZN4llvm11raw_ostream5writeEPKcm(ptr noundef nonnull align 8 dereferenceable(48) %1, ptr noundef nonnull @.str.11, i64 noundef 1) #10
  br label %_ZN4llvm11raw_ostreamlsEPKc.exit

17:                                               ; preds = %9
  store i8 33, ptr %13, align 1
  %18 = load ptr, ptr %12, align 8
  %19 = getelementptr inbounds i8, ptr %18, i64 1
  store ptr %19, ptr %12, align 8
  br label %_ZN4llvm11raw_ostreamlsEPKc.exit

_ZN4llvm11raw_ostreamlsEPKc.exit:                 ; preds = %17, %15, %5
  %20 = icmp eq i64 %4, 0
  br i1 %20, label %_ZN4llvm11raw_ostreamlsEPKc.exit7, label %21

21:                                               ; preds = %_ZN4llvm11raw_ostreamlsEPKc.exit
  %22 = getelementptr inbounds nuw i8, ptr %1, i64 24
  %23 = load ptr, ptr %22, align 8
  %24 = getelementptr inbounds nuw i8, ptr %1, i64 32
  %25 = load ptr, ptr %24, align 8
  %26 = ptrtoint ptr %23 to i64
  %27 = ptrtoint ptr %25 to i64
  %28 = sub i64 %26, %27
  %29 = icmp ugt i64 %4, %28
  br i1 %29, label %30, label %32

30:                                               ; preds = %21
  %31 = tail call noundef nonnull align 8 dereferenceable(48) ptr @_ZN4llvm11raw_ostream5writeEPKcm(ptr noundef nonnull align 8 dereferenceable(48) %1, ptr noundef %3, i64 noundef %4) #10
  %.phi.trans.insert = getelementptr inbounds nuw i8, ptr %31, i64 32
  %.pre = load ptr, ptr %.phi.trans.insert, align 8
  br label %_ZN4llvm11raw_ostreamlsENS_9StringRefE.exit

32:                                               ; preds = %21
  tail call void @llvm.memcpy.p0.p0.i64(ptr align 1 %25, ptr align 1 %3, i64 %4, i1 false)
  %33 = load ptr, ptr %24, align 8
  %34 = getelementptr inbounds i8, ptr %33, i64 %4
  store ptr %34, ptr %24, align 8
  br label %_ZN4llvm11raw_ostreamlsENS_9StringRefE.exit

_ZN4llvm11raw_ostreamlsENS_9StringRefE.exit:      ; preds = %30, %32
  %35 = phi ptr [ %.pre, %30 ], [ %34, %32 ]
  %.0.i = phi ptr [ %31, %30 ], [ %1, %32 ]
  %36 = getelementptr inbounds nuw i8, ptr %.0.i, i64 24
  %37 = load ptr, ptr %36, align 8
  %38 = icmp eq ptr %37, %35
  br i1 %38, label %39, label %41

39:                                               ; preds = %_ZN4llvm11raw_ostreamlsENS_9StringRefE.exit
  %40 = tail call noundef nonnull align 8 dereferenceable(48) ptr @_ZN4llvm11raw_ostream5writeEPKcm(ptr noundef nonnull align 8 dereferenceable(48) %.0.i, ptr noundef nonnull @.str.2, i64 noundef 1) #10
  br label %_ZN4llvm11raw_ostreamlsEPKc.exit7

41:                                               ; preds = %_ZN4llvm11raw_ostreamlsENS_9StringRefE.exit
  %42 = getelementptr inbounds nuw i8, ptr %.0.i, i64 32
  store i8 40, ptr %35, align 1
  %43 = load ptr, ptr %42, align 8
  %44 = getelementptr inbounds i8, ptr %43, i64 1
  store ptr %44, ptr %42, align 8
  br label %_ZN4llvm11raw_ostreamlsEPKc.exit7

_ZN4llvm11raw_ostreamlsEPKc.exit7:                ; preds = %41, %39, %_ZN4llvm11raw_ostreamlsEPKc.exit
  %45 = getelementptr inbounds nuw i8, ptr %1, i64 24
  %46 = load ptr, ptr %45, align 8
  %47 = getelementptr inbounds nuw i8, ptr %1, i64 32
  %48 = load ptr, ptr %47, align 8
  %49 = ptrtoint ptr %46 to i64
  %50 = ptrtoint ptr %48 to i64
  %51 = sub i64 %49, %50
  %52 = icmp ult i64 %51, 2
  br i1 %52, label %53, label %55

53:                                               ; preds = %_ZN4llvm11raw_ostreamlsEPKc.exit7
  %54 = tail call noundef nonnull align 8 dereferenceable(48) ptr @_ZN4llvm11raw_ostream5writeEPKcm(ptr noundef nonnull align 8 dereferenceable(48) %1, ptr noundef nonnull @.str.3, i64 noundef 2) #10
  %.phi.trans.insert25 = getelementptr inbounds nuw i8, ptr %54, i64 32
  %.pre26 = load ptr, ptr %.phi.trans.insert25, align 8
  br label %_ZN4llvm11raw_ostreamlsEPKc.exit10

55:                                               ; preds = %_ZN4llvm11raw_ostreamlsEPKc.exit7
  store i16 18765, ptr %48, align 1
  %56 = load ptr, ptr %47, align 8
  %57 = getelementptr inbounds i8, ptr %56, i64 2
  store ptr %57, ptr %47, align 8
  br label %_ZN4llvm11raw_ostreamlsEPKc.exit10

_ZN4llvm11raw_ostreamlsEPKc.exit10:               ; preds = %53, %55
  %58 = phi ptr [ %.pre26, %53 ], [ %57, %55 ]
  %.0.i.i9 = phi ptr [ %54, %53 ], [ %1, %55 ]
  %59 = load i8, ptr %0, align 8
  %60 = trunc i8 %59 to i1
  %61 = select i1 %60, ptr @.str.4, ptr @.str.5
  %62 = select i1 %60, i64 1, i64 2
  %63 = getelementptr inbounds nuw i8, ptr %.0.i.i9, i64 24
  %64 = load ptr, ptr %63, align 8
  %65 = ptrtoint ptr %64 to i64
  %66 = ptrtoint ptr %58 to i64
  %67 = sub i64 %65, %66
  %68 = icmp ugt i64 %62, %67
  br i1 %68, label %69, label %71

69:                                               ; preds = %_ZN4llvm11raw_ostreamlsEPKc.exit10
  %70 = tail call noundef nonnull align 8 dereferenceable(48) ptr @_ZN4llvm11raw_ostream5writeEPKcm(ptr noundef nonnull align 8 dereferenceable(48) %.0.i.i9, ptr noundef nonnull %61, i64 noundef %62) #10
  %.phi.trans.insert27 = getelementptr inbounds nuw i8, ptr %70, i64 32
  %.pre28 = load ptr, ptr %.phi.trans.insert27, align 8
  br label %_ZN4llvm11raw_ostreamlsEPKc.exit13

71:                                               ; preds = %_ZN4llvm11raw_ostreamlsEPKc.exit10
  %72 = getelementptr inbounds nuw i8, ptr %.0.i.i9, i64 32
  tail call void @llvm.memcpy.p0.p0.i64(ptr noundef nonnull align 1 dereferenceable(1) %58, ptr noundef nonnull align 1 dereferenceable(1) %61, i64 %62, i1 false)
  %73 = load ptr, ptr %72, align 8
  %74 = getelementptr inbounds i8, ptr %73, i64 %62
  store ptr %74, ptr %72, align 8
  br label %_ZN4llvm11raw_ostreamlsEPKc.exit13

_ZN4llvm11raw_ostreamlsEPKc.exit13:               ; preds = %69, %71
  %75 = phi ptr [ %.pre28, %69 ], [ %74, %71 ]
  %.0.i.i12 = phi ptr [ %70, %69 ], [ %.0.i.i9, %71 ]
  %76 = getelementptr inbounds nuw i8, ptr %.0.i.i12, i64 24
  %77 = load ptr, ptr %76, align 8
  %78 = ptrtoint ptr %77 to i64
  %79 = ptrtoint ptr %75 to i64
  %80 = sub i64 %78, %79
  %81 = icmp ult i64 %80, 11
  br i1 %81, label %82, label %84

82:                                               ; preds = %_ZN4llvm11raw_ostreamlsEPKc.exit13
  %83 = tail call noundef nonnull align 8 dereferenceable(48) ptr @_ZN4llvm11raw_ostream5writeEPKcm(ptr noundef nonnull align 8 dereferenceable(48) %.0.i.i12, ptr noundef nonnull @.str.6, i64 noundef 11) #10
  br label %_ZN4llvm11raw_ostreamlsEPKc.exit16

84:                                               ; preds = %_ZN4llvm11raw_ostreamlsEPKc.exit13
  %85 = getelementptr inbounds nuw i8, ptr %.0.i.i12, i64 32
  tail call void @llvm.memcpy.p0.p0.i64(ptr noundef nonnull align 1 dereferenceable(11) %75, ptr noundef nonnull align 1 dereferenceable(11) @.str.6, i64 11, i1 false)
  %86 = load ptr, ptr %85, align 8
  %87 = getelementptr inbounds i8, ptr %86, i64 11
  store ptr %87, ptr %85, align 8
  br label %_ZN4llvm11raw_ostreamlsEPKc.exit16

_ZN4llvm11raw_ostreamlsEPKc.exit16:               ; preds = %82, %84
  %.0.i.i15 = phi ptr [ %83, %82 ], [ %.0.i.i12, %84 ]
  %88 = sext i32 %2 to i64
  %89 = tail call noundef nonnull align 8 dereferenceable(48) ptr @_ZN4llvm11raw_ostreamlsEl(ptr noundef nonnull align 8 dereferenceable(48) %.0.i.i15, i64 noundef %88) #10
  %90 = getelementptr inbounds nuw i8, ptr %89, i64 24
  %91 = load ptr, ptr %90, align 8
  %92 = getelementptr inbounds nuw i8, ptr %89, i64 32
  %93 = load ptr, ptr %92, align 8
  %94 = ptrtoint ptr %91 to i64
  %95 = ptrtoint ptr %93 to i64
  %96 = sub i64 %94, %95
  %97 = icmp ult i64 %96, 10
  br i1 %97, label %98, label %100

98:                                               ; preds = %_ZN4llvm11raw_ostreamlsEPKc.exit16
  %99 = tail call noundef nonnull align 8 dereferenceable(48) ptr @_ZN4llvm11raw_ostream5writeEPKcm(ptr noundef nonnull align 8 dereferenceable(48) %89, ptr noundef nonnull @.str.7, i64 noundef 10) #10
  br label %_ZN4llvm11raw_ostreamlsEPKc.exit19

100:                                              ; preds = %_ZN4llvm11raw_ostreamlsEPKc.exit16
  tail call void @llvm.memcpy.p0.p0.i64(ptr noundef nonnull align 1 dereferenceable(10) %93, ptr noundef nonnull align 1 dereferenceable(10) @.str.7, i64 10, i1 false)
  %101 = load ptr, ptr %92, align 8
  %102 = getelementptr inbounds i8, ptr %101, i64 10
  store ptr %102, ptr %92, align 8
  br label %_ZN4llvm11raw_ostreamlsEPKc.exit19

_ZN4llvm11raw_ostreamlsEPKc.exit19:               ; preds = %98, %100
  br i1 %20, label %_ZN4llvm11raw_ostreamlsEPKc.exit22, label %103

103:                                              ; preds = %_ZN4llvm11raw_ostreamlsEPKc.exit19
  %104 = load ptr, ptr %45, align 8
  %105 = load ptr, ptr %47, align 8
  %106 = icmp eq ptr %104, %105
  br i1 %106, label %107, label %109

107:                                              ; preds = %103
  %108 = tail call noundef nonnull align 8 dereferenceable(48) ptr @_ZN4llvm11raw_ostream5writeEPKcm(ptr noundef nonnull align 8 dereferenceable(48) %1, ptr noundef nonnull @.str.8, i64 noundef 1) #10
  br label %_ZN4llvm11raw_ostreamlsEPKc.exit22

109:                                              ; preds = %103
  store i8 41, ptr %105, align 1
  %110 = load ptr, ptr %47, align 8
  %111 = getelementptr inbounds i8, ptr %110, i64 1
  store ptr %111, ptr %47, align 8
  br label %_ZN4llvm11raw_ostreamlsEPKc.exit22

_ZN4llvm11raw_ostreamlsEPKc.exit22:               ; preds = %109, %107, %_ZN4llvm11raw_ostreamlsEPKc.exit19
  ret void
}